; Function Attrs: nounwind uwtable
define ptr @l_Lean_Widget_ppExprTagged(ptr noundef %0, ptr noundef %1, ptr noundef %2, ptr noundef %3, ptr noundef %4, ptr noundef %5, ptr noundef %6) local_unnamed_addr #1 {
  %8 = getelementptr inbounds nuw i8, ptr %4, i64 24
  %9 = load ptr, ptr %8, align 8, !tbaa !10
  %10 = ptrtoint ptr %9 to i64
  %11 = and i64 %10, 1
  %.not = icmp eq i64 %11, 0
  br i1 %.not, label %12, label %lean_inc.exit50.thread

12:                                               ; preds = %7
  %.val.i = load i32, ptr %9, align 4, !tbaa !4
  %13 = icmp sgt i32 %.val.i, 0
  br i1 %13, label %14, label %16, !prof !9

14:                                               ; preds = %12
  %15 = add nuw i32 %.val.i, 1
  store i32 %15, ptr %9, align 4, !tbaa !4
  br label %lean_inc.exit50

16:                                               ; preds = %12
  %.not.i57 = icmp eq i32 %.val.i, 0
  br i1 %.not.i57, label %lean_inc.exit50, label %17

17:                                               ; preds = %16
  tail call void @lean_inc_ref_cold(ptr noundef nonnull %9) #8
  br label %lean_inc.exit50

lean_inc.exit50:                                  ; preds = %17, %16, %14
  %18 = load ptr, ptr @l_Lean_Widget_ppExprTagged___closed__1, align 8, !tbaa !10
  %19 = tail call zeroext i8 @l_Lean_Option_get___at___private_Lean_Util_Profile_0__Lean_get__profiler___spec__1(ptr noundef nonnull %9, ptr noundef %18) #8
  %20 = icmp eq i8 %19, 0
  br i1 %20, label %24, label %32

lean_inc.exit50.thread:                           ; preds = %7
  %21 = load ptr, ptr @l_Lean_Widget_ppExprTagged___closed__1, align 8, !tbaa !10
  %22 = tail call zeroext i8 @l_Lean_Option_get___at___private_Lean_Util_Profile_0__Lean_get__profiler___spec__1(ptr noundef %9, ptr noundef %21) #8
  %23 = icmp eq i8 %22, 0
  br i1 %23, label %lean_dec.exit48, label %32

24:                                               ; preds = %lean_inc.exit50
  %25 = load i32, ptr %9, align 4, !tbaa !4
  %26 = icmp sgt i32 %25, 1
  br i1 %26, label %27, label %29, !prof !9

27:                                               ; preds = %24
  %28 = add nsw i32 %25, -1
  store i32 %28, ptr %9, align 4, !tbaa !4
  br label %lean_dec.exit48

29:                                               ; preds = %24
  %.not.i = icmp eq i32 %25, 0
  br i1 %.not.i, label %lean_dec.exit48, label %30

30:                                               ; preds = %29
  tail call void @lean_dec_ref_cold(ptr noundef nonnull %9) #8
  br label %lean_dec.exit48

lean_dec.exit48:                                  ; preds = %lean_inc.exit50.thread, %30, %29, %27
  %31 = tail call ptr @l_Lean_Widget_ppExprTagged___lambda__1(ptr noundef %0, ptr noundef %1, ptr nonnull poison, ptr noundef %2, ptr noundef %3, ptr noundef nonnull %4, ptr noundef %5, ptr noundef %6)
  br label %86

32:                                               ; preds = %lean_inc.exit50.thread, %lean_inc.exit50
  %33 = ptrtoint ptr %1 to i64
  %34 = and i64 %33, 1
  %.not64 = icmp eq i64 %34, 0
  br i1 %.not64, label %35, label %lean_dec.exit47

35:                                               ; preds = %32
  %36 = load i32, ptr %1, align 4, !tbaa !4
  %37 = icmp sgt i32 %36, 1
  br i1 %37, label %38, label %40, !prof !9

38:                                               ; preds = %35
  %39 = add nsw i32 %36, -1
  store i32 %39, ptr %1, align 4, !tbaa !4
  br label %lean_dec.exit47

40:                                               ; preds = %35
  %.not.i51 = icmp eq i32 %36, 0
  br i1 %.not.i51, label %lean_dec.exit47, label %41

41:                                               ; preds = %40
  tail call void @lean_dec_ref_cold(ptr noundef nonnull %1) #8
  br label %lean_dec.exit47

lean_dec.exit47:                                  ; preds = %41, %40, %38, %32
  %42 = load ptr, ptr @l_Lean_Widget_ppExprTagged___closed__2, align 8, !tbaa !10
  %43 = tail call zeroext i8 @l_Lean_getPPInstantiateMVars(ptr noundef %9) #8
  br i1 %.not, label %44, label %lean_dec.exit46

44:                                               ; preds = %lean_dec.exit47
  %45 = load i32, ptr %9, align 4, !tbaa !4
  %46 = icmp sgt i32 %45, 1
  br i1 %46, label %47, label %49, !prof !9

47:                                               ; preds = %44
  %48 = add nsw i32 %45, -1
  store i32 %48, ptr %9, align 4, !tbaa !4
  br label %lean_dec.exit46

49:                                               ; preds = %44
  %.not.i53 = icmp eq i32 %45, 0
  br i1 %.not.i53, label %lean_dec.exit46, label %50

50:                                               ; preds = %49
  tail call void @lean_dec_ref_cold(ptr noundef nonnull %9) #8
  br label %lean_dec.exit46

lean_dec.exit46:                                  ; preds = %50, %49, %47, %lean_dec.exit47
  %51 = icmp eq i8 %43, 0
  br i1 %51, label %52, label %54

52:                                               ; preds = %lean_dec.exit46
  %53 = tail call ptr @lean_apply_6(ptr noundef %42, ptr noundef %0, ptr noundef %2, ptr noundef %3, ptr noundef nonnull %4, ptr noundef %5, ptr noundef %6) #8
  br label %86

54:                                               ; preds = %lean_dec.exit46
  %55 = tail call ptr @l_Lean_instantiateMVars___at___private_Lean_Meta_Basic_0__Lean_Meta_isClassApp_x3f___spec__1(ptr noundef %0, ptr noundef %2, ptr noundef %3, ptr noundef nonnull %4, ptr noundef %5, ptr noundef %6) #8
  %56 = getelementptr inbounds nuw i8, ptr %55, i64 8
  %57 = load ptr, ptr %56, align 8, !tbaa !10
  %58 = ptrtoint ptr %57 to i64
  %59 = and i64 %58, 1
  %.not65 = icmp eq i64 %59, 0
  br i1 %.not65, label %60, label %lean_inc.exit49

60:                                               ; preds = %54
  %.val.i58 = load i32, ptr %57, align 4, !tbaa !4
  %61 = icmp sgt i32 %.val.i58, 0
  br i1 %61, label %62, label %64, !prof !9

62:                                               ; preds = %60
  %63 = add nuw i32 %.val.i58, 1
  store i32 %63, ptr %57, align 4, !tbaa !4
  br label %lean_inc.exit49

64:                                               ; preds = %60
  %.not.i59 = icmp eq i32 %.val.i58, 0
  br i1 %.not.i59, label %lean_inc.exit49, label %65

65:                                               ; preds = %64
  tail call void @lean_inc_ref_cold(ptr noundef nonnull %57) #8
  br label %lean_inc.exit49

lean_inc.exit49:                                  ; preds = %65, %64, %62, %54
  %66 = getelementptr inbounds nuw i8, ptr %55, i64 16
  %67 = load ptr, ptr %66, align 8, !tbaa !10
  %68 = ptrtoint ptr %67 to i64
  %69 = and i64 %68, 1
  %.not66 = icmp eq i64 %69, 0
  br i1 %.not66, label %70, label %lean_inc.exit

70:                                               ; preds = %lean_inc.exit49
  %.val.i61 = load i32, ptr %67, align 4, !tbaa !4
  %71 = icmp sgt i32 %.val.i61, 0
  br i1 %71, label %72, label %74, !prof !9

72:                                               ; preds = %70
  %73 = add nuw i32 %.val.i61, 1
  store i32 %73, ptr %67, align 4, !tbaa !4
  br label %lean_inc.exit

74:                                               ; preds = %70
  %.not.i62 = icmp eq i32 %.val.i61, 0
  br i1 %.not.i62, label %lean_inc.exit, label %75

75:                                               ; preds = %74
  tail call void @lean_inc_ref_cold(ptr noundef nonnull %67) #8
  br label %lean_inc.exit

lean_inc.exit:                                    ; preds = %75, %74, %72, %lean_inc.exit49
  %76 = ptrtoint ptr %55 to i64
  %77 = and i64 %76, 1
  %.not67 = icmp eq i64 %77, 0
  br i1 %.not67, label %78, label %lean_dec.exit

78:                                               ; preds = %lean_inc.exit
  %79 = load i32, ptr %55, align 4, !tbaa !4
  %80 = icmp sgt i32 %79, 1
  br i1 %80, label %81, label %83, !prof !9

81:                                               ; preds = %78
  %82 = add nsw i32 %79, -1
  store i32 %82, ptr %55, align 4, !tbaa !4
  br label %lean_dec.exit

83:                                               ; preds = %78
  %.not.i55 = icmp eq i32 %79, 0
  br i1 %.not.i55, label %lean_dec.exit, label %84

84:                                               ; preds = %83
  tail call void @lean_dec_ref_cold(ptr noundef nonnull %55) #8
  br label %lean_dec.exit

lean_dec.exit:                                    ; preds = %84, %83, %81, %lean_inc.exit
  %85 = tail call ptr @lean_apply_6(ptr noundef %42, ptr noundef %57, ptr noundef %2, ptr noundef %3, ptr noundef nonnull %4, ptr noundef %5, ptr noundef %67) #8
  br label %86

86:                                               ; preds = %52, %lean_dec.exit, %lean_dec.exit48
  %.0 = phi ptr [ %31, %lean_dec.exit48 ], [ %53, %52 ], [ %85, %lean_dec.exit ]
  ret ptr %.0
}